target datalayout = "e-m:e-p270:32:32-p271:32:32-p272:64:64-i64:64-i128:128-f80:128-n8:16:32:64-S128"
target triple = "x86_64-unknown-linux-gnu"

%struct.geoArray = type { ptr, i64, i64 }
%struct.geoPoint = type { double, double, double, double, ptr }

; Function Attrs: nounwind uwtable
define dso_local ptr @geoArrayAppend(ptr noundef %ga, ptr noundef %xy, double noundef %dist, double noundef %score, ptr noundef %member) #0 {
entry:
  %ga.addr = alloca ptr, align 8
  %xy.addr = alloca ptr, align 8
  %dist.addr = alloca double, align 8
  %score.addr = alloca double, align 8
  %member.addr = alloca ptr, align 8
  %gp = alloca ptr, align 8
  store ptr %ga, ptr %ga.addr, align 8
  store ptr %xy, ptr %xy.addr, align 8
  store double %dist, ptr %dist.addr, align 8
  store double %score, ptr %score.addr, align 8
  store ptr %member, ptr %member.addr, align 8
  %0 = load ptr, ptr %ga.addr, align 8
  %used = getelementptr inbounds %struct.geoArray, ptr %0, i32 0, i32 2
  %1 = load i64, ptr %used, align 8
  %2 = load ptr, ptr %ga.addr, align 8
  %buckets = getelementptr inbounds %struct.geoArray, ptr %2, i32 0, i32 1
  %3 = load i64, ptr %buckets, align 8
  %cmp = icmp eq i64 %1, %3
  br i1 %cmp, label %if.then, label %if.end

if.then:                                          ; preds = %entry
  %4 = load ptr, ptr %ga.addr, align 8
  %buckets1 = getelementptr inbounds %struct.geoArray, ptr %4, i32 0, i32 1
  %5 = load i64, ptr %buckets1, align 8
  %cmp2 = icmp eq i64 %5, 0
  br i1 %cmp2, label %cond.true, label %cond.false

cond.true:                                        ; preds = %if.then
  br label %cond.end

cond.false:                                       ; preds = %if.then
  %6 = load ptr, ptr %ga.addr, align 8
  %buckets3 = getelementptr inbounds %struct.geoArray, ptr %6, i32 0, i32 1
  %7 = load i64, ptr %buckets3, align 8
  %mul = mul i64 %7, 2
  br label %cond.end

cond.end:                                         ; preds = %cond.false, %cond.true
  %cond = phi i64 [ 8, %cond.true ], [ %mul, %cond.false ]
  %8 = load ptr, ptr %ga.addr, align 8
  %buckets4 = getelementptr inbounds %struct.geoArray, ptr %8, i32 0, i32 1
  store i64 %cond, ptr %buckets4, align 8
  %9 = load ptr, ptr %ga.addr, align 8
  %array = getelementptr inbounds %struct.geoArray, ptr %9, i32 0, i32 0
  %10 = load ptr, ptr %array, align 8
  %11 = load ptr, ptr %ga.addr, align 8
  %buckets5 = getelementptr inbounds %struct.geoArray, ptr %11, i32 0, i32 1
  %12 = load i64, ptr %buckets5, align 8
  %mul6 = mul i64 40, %12
  %call = call ptr @zrealloc(ptr noundef %10, i64 noundef %mul6) #10
  %13 = load ptr, ptr %ga.addr, align 8
  %array7 = getelementptr inbounds %struct.geoArray, ptr %13, i32 0, i32 0
  store ptr %call, ptr %array7, align 8
  br label %if.end

if.end:                                           ; preds = %cond.end, %entry
  %14 = load ptr, ptr %ga.addr, align 8
  %array8 = getelementptr inbounds %struct.geoArray, ptr %14, i32 0, i32 0
  %15 = load ptr, ptr %array8, align 8
  %16 = load ptr, ptr %ga.addr, align 8
  %used9 = getelementptr inbounds %struct.geoArray, ptr %16, i32 0, i32 2
  %17 = load i64, ptr %used9, align 8
  %add.ptr = getelementptr inbounds %struct.geoPoint, ptr %15, i64 %17
  store ptr %add.ptr, ptr %gp, align 8
  %18 = load ptr, ptr %xy.addr, align 8
  %arrayidx = getelementptr inbounds double, ptr %18, i64 0
  %19 = load double, ptr %arrayidx, align 8
  %20 = load ptr, ptr %gp, align 8
  %longitude = getelementptr inbounds %struct.geoPoint, ptr %20, i32 0, i32 0
  store double %19, ptr %longitude, align 8
  %21 = load ptr, ptr %xy.addr, align 8
  %arrayidx10 = getelementptr inbounds double, ptr %21, i64 1
  %22 = load double, ptr %arrayidx10, align 8
  %23 = load ptr, ptr %gp, align 8
  %latitude = getelementptr inbounds %struct.geoPoint, ptr %23, i32 0, i32 1
  store double %22, ptr %latitude, align 8
  %24 = load double, ptr %dist.addr, align 8
  %25 = load ptr, ptr %gp, align 8
  %dist11 = getelementptr inbounds %struct.geoPoint, ptr %25, i32 0, i32 2
  store double %24, ptr %dist11, align 8
  %26 = load ptr, ptr %member.addr, align 8
  %27 = load ptr, ptr %gp, align 8
  %member12 = getelementptr inbounds %struct.geoPoint, ptr %27, i32 0, i32 4
  store ptr %26, ptr %member12, align 8
  %28 = load double, ptr %score.addr, align 8
  %29 = load ptr, ptr %gp, align 8
  %score13 = getelementptr inbounds %struct.geoPoint, ptr %29, i32 0, i32 3
  store double %28, ptr %score13, align 8
  %30 = load ptr, ptr %ga.addr, align 8
  %used14 = getelementptr inbounds %struct.geoArray, ptr %30, i32 0, i32 2
  %31 = load i64, ptr %used14, align 8
  %inc = add i64 %31, 1
  store i64 %inc, ptr %used14, align 8
  %32 = load ptr, ptr %gp, align 8
  ret ptr %32
}