; Function Attrs: nounwind uwtable
define dso_local noundef ptr @geoArrayAppend(ptr nocapture noundef %ga, ptr nocapture noundef readonly %xy, double noundef %dist, double noundef %score, ptr noundef %member) local_unnamed_addr #0 {
entry:
  %used = getelementptr inbounds i8, ptr %ga, i64 16
  %0 = load i64, ptr %used, align 8
  %buckets = getelementptr inbounds i8, ptr %ga, i64 8
  %1 = load i64, ptr %buckets, align 8
  %cmp = icmp eq i64 %0, %1
  %.pre = load ptr, ptr %ga, align 8
  br i1 %cmp, label %if.then, label %if.end

if.then:                                          ; preds = %entry
  %cmp2 = icmp eq i64 %0, 0
  %mul = shl i64 %0, 1
  %spec.select = select i1 %cmp2, i64 8, i64 %mul
  store i64 %spec.select, ptr %buckets, align 8
  %mul6 = mul i64 %spec.select, 40
  %call = tail call ptr @zrealloc(ptr noundef %.pre, i64 noundef %mul6) #13
  store ptr %call, ptr %ga, align 8
  %.pre17 = load i64, ptr %used, align 8
  br label %if.end

if.end:                                           ; preds = %if.then, %entry
  %2 = phi i64 [ %.pre17, %if.then ], [ %0, %entry ]
  %3 = phi ptr [ %call, %if.then ], [ %.pre, %entry ]
  %add.ptr = getelementptr inbounds %struct.geoPoint, ptr %3, i64 %2
  %4 = load double, ptr %xy, align 8
  store double %4, ptr %add.ptr, align 8
  %arrayidx10 = getelementptr inbounds i8, ptr %xy, i64 8
  %5 = load double, ptr %arrayidx10, align 8
  %latitude = getelementptr inbounds i8, ptr %add.ptr, i64 8
  store double %5, ptr %latitude, align 8
  %dist11 = getelementptr inbounds i8, ptr %add.ptr, i64 16
  store double %dist, ptr %dist11, align 8
  %member12 = getelementptr inbounds i8, ptr %add.ptr, i64 32
  store ptr %member, ptr %member12, align 8
  %score13 = getelementptr inbounds i8, ptr %add.ptr, i64 24
  store double %score, ptr %score13, align 8
  %6 = load i64, ptr %used, align 8
  %inc = add i64 %6, 1
  store i64 %inc, ptr %used, align 8
  ret ptr %add.ptr
}